; Function Attrs: mustprogress nofree norecurse nosync nounwind willreturn memory(argmem: read) uwtable
define noundef zeroext i1 @_ZNK2cv10GFrameDesceqERKS0_(ptr noundef nonnull readonly align 4 captures(none) dereferenceable(12) %0, ptr noundef nonnull readonly align 4 captures(none) dereferenceable(12) %1) local_unnamed_addr #8 align 2 {
  %3 = load i32, ptr %0, align 4, !tbaa !27
  %4 = load i32, ptr %1, align 4, !tbaa !27
  %5 = icmp eq i32 %3, %4
  br i1 %5, label %6, label %14

6:                                                ; preds = %2
  %7 = getelementptr inbounds nuw i8, ptr %0, i64 4
  %8 = getelementptr inbounds nuw i8, ptr %1, i64 4
  %.val = load i32, ptr %7, align 4, !tbaa !31
  %9 = getelementptr inbounds nuw i8, ptr %0, i64 8
  %.val3 = load i32, ptr %9, align 4
  %.val4 = load i32, ptr %8, align 4, !tbaa !31
  %10 = getelementptr inbounds nuw i8, ptr %1, i64 8
  %.val5 = load i32, ptr %10, align 4
  %11 = icmp eq i32 %.val, %.val4
  %12 = icmp eq i32 %.val3, %.val5
  %13 = select i1 %11, i1 %12, i1 false
  br label %14

14:                                               ; preds = %6, %2
  %15 = phi i1 [ false, %2 ], [ %13, %6 ]
  ret i1 %15
}